; ModuleID = '51/908.c'
source_filename = "51/908.c"
target datalayout = "e-m:e-p270:32:32-p271:32:32-p272:64:64-i64:64-f80:128-n8:16:32:64-S128"
target triple = "x86_64-pc-linux-gnu"

@.str = private unnamed_addr constant [3 x i8] c"%d\00", align 1
@.str.1 = private unnamed_addr constant [4 x i8] c"NO\0A\00", align 1
@.str.2 = private unnamed_addr constant [4 x i8] c"%d\0A\00", align 1
@.str.3 = private unnamed_addr constant [4 x i8] c"%s\0A\00", align 1

; Function Attrs: noinline nounwind uwtable
define dso_local i32 @main() #0 {
  %1 = alloca i32, align 4
  %2 = alloca i32, align 4
  %3 = alloca i32, align 4
  %4 = alloca i32, align 4
  %5 = alloca i32, align 4
  %6 = alloca i32, align 4
  %7 = alloca i32, align 4
  %8 = alloca [600 x i32], align 16
  %9 = alloca [600 x i8], align 16
  %10 = alloca [600 x [6 x i8]], align 16
  %11 = alloca [10 x i8], align 1
  store i32 0, i32* %1, align 4
  %12 = bitcast [600 x i32]* %8 to i8*
  call void @llvm.memset.p0i8.i64(i8* align 16 %12, i8 0, i64 2400, i1 false)
  %13 = call i32 (i8*, ...) @__isoc99_scanf(i8* getelementptr inbounds ([3 x i8], [3 x i8]* @.str, i64 0, i64 0), i32* %2)
  %14 = getelementptr inbounds [10 x i8], [10 x i8]* %11, i64 0, i64 0
  %15 = call i32 (i8*, ...) bitcast (i32 (...)* @gets to i32 (i8*, ...)*)(i8* %14)
  %16 = getelementptr inbounds [600 x i8], [600 x i8]* %9, i64 0, i64 0
  %17 = call i32 (i8*, ...) bitcast (i32 (...)* @gets to i32 (i8*, ...)*)(i8* %16)
  %18 = getelementptr inbounds [600 x i8], [600 x i8]* %9, i64 0, i64 0
  %19 = call i64 @strlen(i8* %18) #5
  %20 = trunc i64 %19 to i32
  store i32 %20, i32* %3, align 4
  store i32 0, i32* %4, align 4
  br label %21

21:                                               ; preds = %55, %0
  %22 = load i32, i32* %4, align 4
  %23 = load i32, i32* %2, align 4
  %24 = add nsw i32 %22, %23
  %25 = load i32, i32* %3, align 4
  %26 = icmp sle i32 %24, %25
  br i1 %26, label %27, label %58

27:                                               ; preds = %21
  store i32 0, i32* %5, align 4
  br label %28

28:                                               ; preds = %45, %27
  %29 = load i32, i32* %5, align 4
  %30 = load i32, i32* %2, align 4
  %31 = icmp slt i32 %29, %30
  br i1 %31, label %32, label %48

32:                                               ; preds = %28
  %33 = load i32, i32* %4, align 4
  %34 = load i32, i32* %5, align 4
  %35 = add nsw i32 %33, %34
  %36 = sext i32 %35 to i64
  %37 = getelementptr inbounds [600 x i8], [600 x i8]* %9, i64 0, i64 %36
  %38 = load i8, i8* %37, align 1
  %39 = load i32, i32* %4, align 4
  %40 = sext i32 %39 to i64
  %41 = getelementptr inbounds [600 x [6 x i8]], [600 x [6 x i8]]* %10, i64 0, i64 %40
  %42 = load i32, i32* %5, align 4
  %43 = sext i32 %42 to i64
  %44 = getelementptr inbounds [6 x i8], [6 x i8]* %41, i64 0, i64 %43
  store i8 %38, i8* %44, align 1
  br label %45

45:                                               ; preds = %32
  %46 = load i32, i32* %5, align 4
  %47 = add nsw i32 %46, 1
  store i32 %47, i32* %5, align 4
  br label %28

48:                                               ; preds = %28
  %49 = load i32, i32* %4, align 4
  %50 = sext i32 %49 to i64
  %51 = getelementptr inbounds [600 x [6 x i8]], [600 x [6 x i8]]* %10, i64 0, i64 %50
  %52 = load i32, i32* %2, align 4
  %53 = sext i32 %52 to i64
  %54 = getelementptr inbounds [6 x i8], [6 x i8]* %51, i64 0, i64 %53
  store i8 0, i8* %54, align 1
  br label %55

55:                                               ; preds = %48
  %56 = load i32, i32* %4, align 4
  %57 = add nsw i32 %56, 1
  store i32 %57, i32* %4, align 4
  br label %21

58:                                               ; preds = %21
  %59 = load i32, i32* %4, align 4
  store i32 %59, i32* %6, align 4
  store i32 0, i32* %4, align 4
  br label %60

60:                                               ; preds = %106, %58
  %61 = load i32, i32* %4, align 4
  %62 = load i32, i32* %6, align 4
  %63 = sub nsw i32 %62, 1
  %64 = icmp slt i32 %61, %63
  br i1 %64, label %65, label %109

65:                                               ; preds = %60
  %66 = load i32, i32* %4, align 4
  %67 = add nsw i32 %66, 1
  store i32 %67, i32* %5, align 4
  br label %68

68:                                               ; preds = %102, %65
  %69 = load i32, i32* %5, align 4
  %70 = load i32, i32* %6, align 4
  %71 = icmp slt i32 %69, %70
  br i1 %71, label %72, label %105

72:                                               ; preds = %68
  %73 = load i32, i32* %4, align 4
  %74 = sext i32 %73 to i64
  %75 = getelementptr inbounds [600 x [6 x i8]], [600 x [6 x i8]]* %10, i64 0, i64 %74
  %76 = getelementptr inbounds [6 x i8], [6 x i8]* %75, i64 0, i64 0
  %77 = load i8, i8* %76, align 2
  %78 = sext i8 %77 to i32
  %79 = icmp ne i32 %78, 0
  br i1 %79, label %80, label %101

80:                                               ; preds = %72
  %81 = load i32, i32* %4, align 4
  %82 = sext i32 %81 to i64
  %83 = getelementptr inbounds [600 x [6 x i8]], [600 x [6 x i8]]* %10, i64 0, i64 %82
  %84 = getelementptr inbounds [6 x i8], [6 x i8]* %83, i64 0, i64 0
  %85 = load i32, i32* %5, align 4
  %86 = sext i32 %85 to i64
  %87 = getelementptr inbounds [600 x [6 x i8]], [600 x [6 x i8]]* %10, i64 0, i64 %86
  %88 = getelementptr inbounds [6 x i8], [6 x i8]* %87, i64 0, i64 0
  %89 = call i32 @strcmp(i8* %84, i8* %88) #5
  %90 = icmp eq i32 %89, 0
  br i1 %90, label %91, label %101

91:                                               ; preds = %80
  %92 = load i32, i32* %5, align 4
  %93 = sext i32 %92 to i64
  %94 = getelementptr inbounds [600 x [6 x i8]], [600 x [6 x i8]]* %10, i64 0, i64 %93
  %95 = getelementptr inbounds [6 x i8], [6 x i8]* %94, i64 0, i64 0
  store i8 0, i8* %95, align 2
  %96 = load i32, i32* %4, align 4
  %97 = sext i32 %96 to i64
  %98 = getelementptr inbounds [600 x i32], [600 x i32]* %8, i64 0, i64 %97
  %99 = load i32, i32* %98, align 4
  %100 = add nsw i32 %99, 1
  store i32 %100, i32* %98, align 4
  br label %101

101:                                              ; preds = %91, %80, %72
  br label %102

102:                                              ; preds = %101
  %103 = load i32, i32* %5, align 4
  %104 = add nsw i32 %103, 1
  store i32 %104, i32* %5, align 4
  br label %68

105:                                              ; preds = %68
  br label %106

106:                                              ; preds = %105
  %107 = load i32, i32* %4, align 4
  %108 = add nsw i32 %107, 1
  store i32 %108, i32* %4, align 4
  br label %60

109:                                              ; preds = %60
  store i32 0, i32* %4, align 4
  br label %110

110:                                              ; preds = %188, %109
  %111 = load i32, i32* %4, align 4
  %112 = load i32, i32* %6, align 4
  %113 = sub nsw i32 %112, 1
  %114 = icmp slt i32 %111, %113
  br i1 %114, label %115, label %191

115:                                              ; preds = %110
  store i32 0, i32* %5, align 4
  br label %116

116:                                              ; preds = %184, %115
  %117 = load i32, i32* %5, align 4
  %118 = load i32, i32* %6, align 4
  %119 = sub nsw i32 %118, 1
  %120 = load i32, i32* %4, align 4
  %121 = sub nsw i32 %119, %120
  %122 = icmp slt i32 %117, %121
  br i1 %122, label %123, label %187

123:                                              ; preds = %116
  %124 = load i32, i32* %5, align 4
  %125 = sext i32 %124 to i64
  %126 = getelementptr inbounds [600 x i32], [600 x i32]* %8, i64 0, i64 %125
  %127 = load i32, i32* %126, align 4
  %128 = load i32, i32* %5, align 4
  %129 = add nsw i32 %128, 1
  %130 = sext i32 %129 to i64
  %131 = getelementptr inbounds [600 x i32], [600 x i32]* %8, i64 0, i64 %130
  %132 = load i32, i32* %131, align 4
  %133 = icmp slt i32 %127, %132
  br i1 %133, label %134, label %183

134:                                              ; preds = %123
  %135 = load i32, i32* %5, align 4
  %136 = sext i32 %135 to i64
  %137 = getelementptr inbounds [600 x i32], [600 x i32]* %8, i64 0, i64 %136
  %138 = load i32, i32* %137, align 4
  store i32 %138, i32* %7, align 4
  %139 = load i32, i32* %5, align 4
  %140 = add nsw i32 %139, 1
  %141 = sext i32 %140 to i64
  %142 = getelementptr inbounds [600 x i32], [600 x i32]* %8, i64 0, i64 %141
  %143 = load i32, i32* %142, align 4
  %144 = load i32, i32* %5, align 4
  %145 = sext i32 %144 to i64
  %146 = getelementptr inbounds [600 x i32], [600 x i32]* %8, i64 0, i64 %145
  store i32 %143, i32* %146, align 4
  %147 = load i32, i32* %7, align 4
  %148 = load i32, i32* %5, align 4
  %149 = add nsw i32 %148, 1
  %150 = sext i32 %149 to i64
  %151 = getelementptr inbounds [600 x i32], [600 x i32]* %8, i64 0, i64 %150
  store i32 %147, i32* %151, align 4
  %152 = load i32, i32* %4, align 4
  %153 = add nsw i32 500, %152
  %154 = sext i32 %153 to i64
  %155 = getelementptr inbounds [600 x [6 x i8]], [600 x [6 x i8]]* %10, i64 0, i64 %154
  %156 = getelementptr inbounds [6 x i8], [6 x i8]* %155, i64 0, i64 0
  %157 = load i32, i32* %5, align 4
  %158 = sext i32 %157 to i64
  %159 = getelementptr inbounds [600 x [6 x i8]], [600 x [6 x i8]]* %10, i64 0, i64 %158
  %160 = getelementptr inbounds [6 x i8], [6 x i8]* %159, i64 0, i64 0
  %161 = call i8* @strcpy(i8* %156, i8* %160) #6
  %162 = load i32, i32* %5, align 4
  %163 = sext i32 %162 to i64
  %164 = getelementptr inbounds [600 x [6 x i8]], [600 x [6 x i8]]* %10, i64 0, i64 %163
  %165 = getelementptr inbounds [6 x i8], [6 x i8]* %164, i64 0, i64 0
  %166 = load i32, i32* %5, align 4
  %167 = add nsw i32 %166, 1
  %168 = sext i32 %167 to i64
  %169 = getelementptr inbounds [600 x [6 x i8]], [600 x [6 x i8]]* %10, i64 0, i64 %168
  %170 = getelementptr inbounds [6 x i8], [6 x i8]* %169, i64 0, i64 0
  %171 = call i8* @strcpy(i8* %165, i8* %170) #6
  %172 = load i32, i32* %5, align 4
  %173 = add nsw i32 %172, 1
  %174 = sext i32 %173 to i64
  %175 = getelementptr inbounds [600 x [6 x i8]], [600 x [6 x i8]]* %10, i64 0, i64 %174
  %176 = getelementptr inbounds [6 x i8], [6 x i8]* %175, i64 0, i64 0
  %177 = load i32, i32* %4, align 4
  %178 = add nsw i32 500, %177
  %179 = sext i32 %178 to i64
  %180 = getelementptr inbounds [600 x [6 x i8]], [600 x [6 x i8]]* %10, i64 0, i64 %179
  %181 = getelementptr inbounds [6 x i8], [6 x i8]* %180, i64 0, i64 0
  %182 = call i8* @strcpy(i8* %176, i8* %181) #6
  br label %183

183:                                              ; preds = %134, %123
  br label %184

184:                                              ; preds = %183
  %185 = load i32, i32* %5, align 4
  %186 = add nsw i32 %185, 1
  store i32 %186, i32* %5, align 4
  br label %116

187:                                              ; preds = %116
  br label %188

188:                                              ; preds = %187
  %189 = load i32, i32* %4, align 4
  %190 = add nsw i32 %189, 1
  store i32 %190, i32* %4, align 4
  br label %110

191:                                              ; preds = %110
  %192 = getelementptr inbounds [600 x i32], [600 x i32]* %8, i64 0, i64 0
  %193 = load i32, i32* %192, align 16
  %194 = icmp eq i32 %193, 0
  br i1 %194, label %195, label %197

195:                                              ; preds = %191
  %196 = call i32 (i8*, ...) @printf(i8* getelementptr inbounds ([4 x i8], [4 x i8]* @.str.1, i64 0, i64 0))
  br label %219

197:                                              ; preds = %191
  store i32 0, i32* %4, align 4
  %198 = getelementptr inbounds [600 x i32], [600 x i32]* %8, i64 0, i64 0
  %199 = load i32, i32* %198, align 16
  %200 = add nsw i32 %199, 1
  %201 = call i32 (i8*, ...) @printf(i8* getelementptr inbounds ([4 x i8], [4 x i8]* @.str.2, i64 0, i64 0), i32 %200)
  br label %202

202:                                              ; preds = %210, %197
  %203 = load i32, i32* %4, align 4
  %204 = sext i32 %203 to i64
  %205 = getelementptr inbounds [600 x i32], [600 x i32]* %8, i64 0, i64 %204
  %206 = load i32, i32* %205, align 4
  %207 = getelementptr inbounds [600 x i32], [600 x i32]* %8, i64 0, i64 0
  %208 = load i32, i32* %207, align 16
  %209 = icmp eq i32 %206, %208
  br i1 %209, label %210, label %218

210:                                              ; preds = %202
  %211 = load i32, i32* %4, align 4
  %212 = sext i32 %211 to i64
  %213 = getelementptr inbounds [600 x [6 x i8]], [600 x [6 x i8]]* %10, i64 0, i64 %212
  %214 = getelementptr inbounds [6 x i8], [6 x i8]* %213, i64 0, i64 0
  %215 = call i32 (i8*, ...) @printf(i8* getelementptr inbounds ([4 x i8], [4 x i8]* @.str.3, i64 0, i64 0), i8* %214)
  %216 = load i32, i32* %4, align 4
  %217 = add nsw i32 %216, 1
  store i32 %217, i32* %4, align 4
  br label %202

218:                                              ; preds = %202
  br label %219

219:                                              ; preds = %218, %195
  ret i32 0
}

; Function Attrs: argmemonly nounwind willreturn
declare void @llvm.memset.p0i8.i64(i8* nocapture writeonly, i8, i64, i1 immarg) #1

declare dso_local i32 @__isoc99_scanf(i8*, ...) #2

declare dso_local i32 @gets(...) #2

; Function Attrs: nounwind readonly
declare dso_local i64 @strlen(i8*) #3

; Function Attrs: nounwind readonly
declare dso_local i32 @strcmp(i8*, i8*) #3

; Function Attrs: nounwind
declare dso_local i8* @strcpy(i8*, i8*) #4

declare dso_local i32 @printf(i8*, ...) #2


!llvm.module.flags = !{!0}
!llvm.ident = !{!1}

!0 = !{i32 1, !"wchar_size", i32 4}
!1 = !{!"clang version 10.0.0-4ubuntu1 "}
